target datalayout = "e-m:e-p270:32:32-p271:32:32-p272:64:64-i64:64-i128:128-f80:128-n8:16:32:64-S128"
target triple = "x86_64-unknown-linux-gnu"

%"class.hermes::vm::StorageProvider" = type { ptr, i64, i64, i64 }

; Function Attrs: mustprogress nounwind uwtable
define hidden void @_ZN6hermes2vm15StorageProvider13deleteStorageEPv(ptr noundef nonnull align 8 dereferenceable(32) %this, ptr noundef %storage) #0 align 2 {
entry:
  %this.addr = alloca ptr, align 8
  %storage.addr = alloca ptr, align 8
  store ptr %this, ptr %this.addr, align 8
  store ptr %storage, ptr %storage.addr, align 8
  %this1 = load ptr, ptr %this.addr, align 8
  %0 = load ptr, ptr %storage.addr, align 8
  %tobool = icmp ne ptr %0, null
  br i1 %tobool, label %if.end, label %if.then

if.then:                                          ; preds = %entry
  br label %return

if.end:                                           ; preds = %entry
  %numDeletedAllocs_ = getelementptr inbounds %"class.hermes::vm::StorageProvider", ptr %this1, i32 0, i32 3
  %1 = load i64, ptr %numDeletedAllocs_, align 8
  %inc = add i64 %1, 1
  store i64 %inc, ptr %numDeletedAllocs_, align 8
  %2 = load ptr, ptr %storage.addr, align 8
  %vtable = load ptr, ptr %this1, align 8
  %vfn = getelementptr inbounds ptr, ptr %vtable, i64 3
  %3 = load ptr, ptr %vfn, align 8
  call void %3(ptr noundef nonnull align 8 dereferenceable(32) %this1, ptr noundef %2)
  br label %return

return:                                           ; preds = %if.end, %if.then
  ret void
}