; Function Attrs: mustprogress nounwind uwtable
define hidden void @_ZN6hermes2vm15StorageProvider13deleteStorageEPv(ptr noundef nonnull align 8 dereferenceable(32) %this, ptr noundef %storage) local_unnamed_addr #3 align 2 {
entry:
  %tobool.not = icmp eq ptr %storage, null
  br i1 %tobool.not, label %return, label %if.end

if.end:                                           ; preds = %entry
  %numDeletedAllocs_ = getelementptr inbounds i8, ptr %this, i64 24
  %0 = load i64, ptr %numDeletedAllocs_, align 8
  %inc = add i64 %0, 1
  store i64 %inc, ptr %numDeletedAllocs_, align 8
  %vtable = load ptr, ptr %this, align 8
  %vfn = getelementptr inbounds i8, ptr %vtable, i64 24
  %1 = load ptr, ptr %vfn, align 8
  tail call void %1(ptr noundef nonnull align 8 dereferenceable(32) %this, ptr noundef nonnull %storage) #18
  br label %return

return:                                           ; preds = %entry, %if.end
  ret void
}